target datalayout = "e-m:e-p270:32:32-p271:32:32-p272:64:64-i64:64-i128:128-f80:128-n8:16:32:64-S128"
target triple = "x86_64-pc-linux-gnu"

%class.ExtcapArgument = type { %class.QObject, %class.QList, ptr, ptr, i32, %class.QString }
%class.QObject = type { ptr, %class.QScopedPointer }
%class.QScopedPointer = type { ptr }
%class.QList = type { %struct.QArrayDataPointer }
%struct.QArrayDataPointer = type { ptr, ptr, i64 }
%class.QString = type { %struct.QArrayDataPointer.0 }
%struct.QArrayDataPointer.0 = type { ptr, ptr, i64 }
%struct._extcap_arg = type { i32, ptr, ptr, ptr, ptr, ptr, i8, i8, i8, i8, ptr, ptr, i32, ptr, ptr, ptr, ptr, ptr, ptr }

@.str.1 = private unnamed_addr constant [1 x i8] zeroinitializer, align 1

; Function Attrs: mustprogress null_pointer_is_valid sspstrong uwtable
define void @_ZN14ExtcapArgument10resetValueEv(ptr noundef align 8 dereferenceable_or_null(88) %0) #0 align 2 {
  %2 = alloca ptr, align 8
  store ptr %0, ptr %2, align 8
  %3 = load ptr, ptr %2, align 8
  %4 = getelementptr inbounds nuw %class.ExtcapArgument, ptr %3, i32 0, i32 2
  %5 = load ptr, ptr %4, align 8
  %6 = getelementptr inbounds nuw %struct._extcap_arg, ptr %5, i32 0, i32 16
  %7 = load ptr, ptr %6, align 8
  %8 = icmp ne ptr %7, null
  br i1 %8, label %9, label %20

9:                                                ; preds = %1
  %10 = getelementptr inbounds nuw %class.ExtcapArgument, ptr %3, i32 0, i32 2
  %11 = load ptr, ptr %10, align 8
  %12 = getelementptr inbounds nuw %struct._extcap_arg, ptr %11, i32 0, i32 16
  %13 = load ptr, ptr %12, align 8
  %14 = load ptr, ptr %13, align 8
  call void @g_free(ptr noundef %14)
  %15 = call noalias ptr @g_strdup(ptr noundef @.str.1)
  %16 = getelementptr inbounds nuw %class.ExtcapArgument, ptr %3, i32 0, i32 2
  %17 = load ptr, ptr %16, align 8
  %18 = getelementptr inbounds nuw %struct._extcap_arg, ptr %17, i32 0, i32 16
  %19 = load ptr, ptr %18, align 8
  store ptr %15, ptr %19, align 8
  br label %20

20:                                               ; preds = %9, %1
  ret void
}