; Function Attrs: mustprogress null_pointer_is_valid sspstrong uwtable
define void @_ZN14ExtcapArgument10resetValueEv(ptr noundef readonly align 8 captures(none) dereferenceable_or_null(88) %0) local_unnamed_addr #0 align 2 {
  %2 = getelementptr inbounds nuw i8, ptr %0, i64 40
  %3 = load ptr, ptr %2, align 8
  %4 = getelementptr inbounds nuw i8, ptr %3, i64 104
  %5 = load ptr, ptr %4, align 8
  %.not = icmp eq ptr %5, null
  br i1 %.not, label %12, label %6

6:                                                ; preds = %1
  %7 = load ptr, ptr %5, align 8
  tail call void @g_free(ptr noundef %7)
  %8 = tail call noalias ptr @g_strdup(ptr noundef nonnull @.str.1)
  %9 = load ptr, ptr %2, align 8
  %10 = getelementptr inbounds nuw i8, ptr %9, i64 104
  %11 = load ptr, ptr %10, align 8
  store ptr %8, ptr %11, align 8
  br label %12

12:                                               ; preds = %6, %1
  ret void
}